; Function Attrs: mustprogress uwtable
define hidden noundef zeroext i1 @_ZNK19OpenColorIO_v2_5dev17GradingToneOpData9isInverseERSt10shared_ptrIKS0_E(ptr noundef nonnull readonly align 8 captures(none) dereferenceable(196) %0, ptr noundef nonnull readonly align 8 captures(none) dereferenceable(16) %1) local_unnamed_addr #3 align 2 {
  %3 = getelementptr inbounds nuw i8, ptr %0, i64 176
  %4 = load ptr, ptr %3, align 8, !tbaa !49
  %5 = getelementptr inbounds nuw i8, ptr %4, i64 12
  %6 = load i8, ptr %5, align 4, !tbaa !60, !range !65, !noundef !66
  %7 = trunc nuw i8 %6 to i1
  br i1 %7, label %32, label %8

8:                                                ; preds = %2
  %9 = load ptr, ptr %1, align 8, !tbaa !77
  %10 = getelementptr inbounds nuw i8, ptr %9, i64 176
  %11 = load ptr, ptr %10, align 8, !tbaa !49
  %12 = getelementptr inbounds nuw i8, ptr %11, i64 12
  %13 = load i8, ptr %12, align 4, !tbaa !60, !range !65, !noundef !66
  %14 = trunc nuw i8 %13 to i1
  br i1 %14, label %32, label %15

15:                                               ; preds = %8
  %16 = getelementptr inbounds nuw i8, ptr %0, i64 168
  %17 = load i32, ptr %16, align 8, !tbaa !6
  %18 = getelementptr inbounds nuw i8, ptr %9, i64 168
  %19 = load i32, ptr %18, align 8, !tbaa !6
  %20 = icmp eq i32 %17, %19
  br i1 %20, label %21, label %31

21:                                               ; preds = %15
  %22 = tail call noundef zeroext i1 @_ZNK19OpenColorIO_v2_5dev19DynamicPropertyImpl6equalsERKS0_(ptr noundef nonnull align 8 dereferenceable(13) %4, ptr noundef nonnull align 8 dereferenceable(13) %11)
  br i1 %22, label %23, label %31

23:                                               ; preds = %21
  %24 = getelementptr inbounds nuw i8, ptr %0, i64 192
  %25 = load i32, ptr %24, align 8, !tbaa !56
  %26 = load ptr, ptr %1, align 8, !tbaa !77
  %27 = getelementptr inbounds nuw i8, ptr %26, i64 192
  %28 = load i32, ptr %27, align 8, !tbaa !56
  %29 = tail call noundef i32 @_ZN19OpenColorIO_v2_5dev26CombineTransformDirectionsENS_18TransformDirectionES0_(i32 noundef %25, i32 noundef %28)
  %30 = icmp eq i32 %29, 1
  br i1 %30, label %32, label %31

31:                                               ; preds = %23, %21, %15
  br label %32

32:                                               ; preds = %23, %2, %8, %31
  %.0 = phi i1 [ false, %31 ], [ false, %8 ], [ false, %2 ], [ true, %23 ]
  ret i1 %.0
}